target datalayout = "e-m:e-p270:32:32-p271:32:32-p272:64:64-i64:64-i128:128-f80:128-n8:16:32:64-S128"
target triple = "x86_64-pc-linux-gnu"

%struct.t_interaction_function = type { ptr, ptr, i32, i32, i32, i32 }

@interaction_function = external global [95 x %struct.t_interaction_function], align 16

; Function Attrs: mustprogress nounwind uwtable
define noundef zeroext i1 @_Z28shouldConvertInteractionTypei(i32 noundef %0) #0 {
  %2 = alloca i32, align 4
  %3 = alloca i64, align 8
  store i32 %0, ptr %2, align 4, !tbaa !4
  call void @llvm.lifetime.start.p0(i64 8, ptr %3) #18
  %4 = load i32, ptr %2, align 4, !tbaa !4
  %5 = sext i32 %4 to i64
  %6 = getelementptr inbounds [95 x %struct.t_interaction_function], ptr @interaction_function, i64 0, i64 %5
  %7 = getelementptr inbounds nuw %struct.t_interaction_function, ptr %6, i32 0, i32 5
  %8 = load i32, ptr %7, align 4, !tbaa !8
  %9 = zext i32 %8 to i64
  store i64 %9, ptr %3, align 8, !tbaa !12
  %10 = load i32, ptr %2, align 4, !tbaa !4
  %11 = icmp ne i32 %10, 37
  br i1 %11, label %12, label %29

12:                                               ; preds = %1
  %13 = load i32, ptr %2, align 4, !tbaa !4
  %14 = icmp ne i32 %13, 38
  br i1 %14, label %15, label %29

15:                                               ; preds = %12
  %16 = load i64, ptr %3, align 8, !tbaa !12
  %17 = and i64 %16, 1
  %18 = icmp ne i64 %17, 0
  br i1 %18, label %27, label %19

19:                                               ; preds = %15
  %20 = load i64, ptr %3, align 8, !tbaa !12
  %21 = and i64 %20, 2
  %22 = icmp ne i64 %21, 0
  br i1 %22, label %27, label %23

23:                                               ; preds = %19
  %24 = load i64, ptr %3, align 8, !tbaa !12
  %25 = and i64 %24, 4
  %26 = icmp ne i64 %25, 0
  br label %27

27:                                               ; preds = %23, %19, %15
  %28 = phi i1 [ true, %19 ], [ true, %15 ], [ %26, %23 ]
  br label %29

29:                                               ; preds = %27, %12, %1
  %30 = phi i1 [ false, %12 ], [ false, %1 ], [ %28, %27 ]
  call void @llvm.lifetime.end.p0(i64 8, ptr %3) #18
  ret i1 %30
}