; Function Attrs: mustprogress nofree norecurse nosync nounwind willreturn memory(read, argmem: none, inaccessiblemem: none) uwtable
define noundef zeroext i1 @_Z28shouldConvertInteractionTypei(i32 noundef %0) local_unnamed_addr #0 {
  %2 = sext i32 %0 to i64
  %3 = getelementptr inbounds [95 x %struct.t_interaction_function], ptr @interaction_function, i64 0, i64 %2, i32 5
  %4 = load i32, ptr %3, align 4, !tbaa !4
  %5 = zext i32 %4 to i64
  %6 = add i32 %0, -39
  %or.cond = icmp ult i32 %6, -2
  br i1 %or.cond, label %7, label %12

7:                                                ; preds = %1
  %8 = and i64 %5, 3
  %or.cond8 = icmp eq i64 %8, 0
  br i1 %or.cond8, label %9, label %12

9:                                                ; preds = %7
  %10 = and i64 %5, 4
  %11 = icmp ne i64 %10, 0
  br label %12

12:                                               ; preds = %7, %9, %1
  %13 = phi i1 [ false, %1 ], [ true, %7 ], [ %11, %9 ]
  ret i1 %13
}